; Function Attrs: nofree norecurse nosync nounwind memory(readwrite, inaccessiblemem: none) uwtable
define void @Gia_ManEquivFixOutputPairs(ptr noundef readonly captures(none) %0) local_unnamed_addr #3 {
  %2 = getelementptr i8, ptr %0, i64 32
  %3 = getelementptr i8, ptr %0, i64 16
  %4 = getelementptr i8, ptr %0, i64 72
  %.val2125 = load i32, ptr %3, align 8, !tbaa !90
  %.val2226 = load ptr, ptr %4, align 8, !tbaa !47
  %5 = getelementptr i8, ptr %.val2226, i64 4
  %.val22.val27 = load i32, ptr %5, align 4, !tbaa !31
  %6 = icmp sgt i32 %.val22.val27, %.val2125
  br i1 %6, label %.lr.ph, label %.critedge

.lr.ph:                                           ; preds = %1, %47
  %.val2234 = phi ptr [ %.val22, %47 ], [ %.val2226, %1 ]
  %.val2132 = phi i32 [ %.val21, %47 ], [ %.val2125, %1 ]
  %indvars.iv = phi i64 [ %indvars.iv.next, %47 ], [ 0, %1 ]
  %.val19 = load ptr, ptr %2, align 8, !tbaa !36
  %7 = getelementptr i8, ptr %.val2234, i64 8
  %.val20.val = load ptr, ptr %7, align 8, !tbaa !8
  %8 = getelementptr inbounds nuw i32, ptr %.val20.val, i64 %indvars.iv
  %9 = load i32, ptr %8, align 4, !tbaa !32
  %10 = sext i32 %9 to i64
  %11 = getelementptr inbounds %struct.Gia_Obj_t_, ptr %.val19, i64 %10
  %.not = icmp eq ptr %.val19, null
  br i1 %.not, label %.critedge, label %12

12:                                               ; preds = %.lr.ph
  %13 = or disjoint i64 %indvars.iv, 1
  %14 = getelementptr inbounds nuw i32, ptr %.val20.val, i64 %13
  %15 = load i32, ptr %14, align 4, !tbaa !32
  %16 = sext i32 %15 to i64
  %17 = getelementptr inbounds %struct.Gia_Obj_t_, ptr %.val19, i64 %16
  %18 = load i64, ptr %11, align 4
  %19 = and i64 %18, 536870911
  %20 = sub nsw i64 0, %19
  %21 = getelementptr inbounds %struct.Gia_Obj_t_, ptr %11, i64 %20
  %22 = lshr i64 %18, 29
  %23 = and i64 %22, 1
  %24 = ptrtoint ptr %21 to i64
  %25 = xor i64 %23, %24
  %26 = load i64, ptr %17, align 4
  %27 = and i64 %26, 536870911
  %28 = sub nsw i64 0, %27
  %29 = getelementptr inbounds %struct.Gia_Obj_t_, ptr %17, i64 %28
  %30 = lshr i64 %26, 29
  %31 = and i64 %30, 1
  %32 = ptrtoint ptr %29 to i64
  %33 = xor i64 %31, %32
  %.not17 = icmp eq i64 %25, %33
  br i1 %.not17, label %34, label %47

34:                                               ; preds = %12
  %35 = and i32 %9, 536870911
  %36 = zext nneg i32 %35 to i64
  %37 = and i64 %18, -1073741824
  %38 = or disjoint i64 %37, %36
  store i64 %38, ptr %11, align 4
  %.val = load ptr, ptr %2, align 8, !tbaa !36
  %39 = ptrtoint ptr %17 to i64
  %40 = ptrtoint ptr %.val to i64
  %41 = sub i64 %39, %40
  %42 = sdiv exact i64 %41, 12
  %43 = load i64, ptr %17, align 4
  %44 = and i64 %42, 536870911
  %45 = and i64 %43, -1073741824
  %46 = or disjoint i64 %44, %45
  store i64 %46, ptr %17, align 4
  %.val21.pre = load i32, ptr %3, align 8, !tbaa !90
  %.val22.pre = load ptr, ptr %4, align 8, !tbaa !47
  br label %47

47:                                               ; preds = %12, %34
  %.val22 = phi ptr [ %.val2234, %12 ], [ %.val22.pre, %34 ]
  %.val21 = phi i32 [ %.val2132, %12 ], [ %.val21.pre, %34 ]
  %indvars.iv.next = add nuw nsw i64 %indvars.iv, 2
  %48 = getelementptr i8, ptr %.val22, i64 4
  %.val22.val = load i32, ptr %48, align 4, !tbaa !31
  %49 = sub nsw i32 %.val22.val, %.val21
  %50 = trunc nuw i64 %indvars.iv.next to i32
  %51 = icmp sgt i32 %49, %50
  br i1 %51, label %.lr.ph, label %.critedge, !llvm.loop !107

.critedge:                                        ; preds = %.lr.ph, %47, %1
  ret void
}